(dp0
S'Polarity'
p1
(lp2
S'polarity_csv/polarity_1.csv'
p3
aS'polarity_csv/polarity_2.csv'
p4
aS'polarity_csv/polarity_3.csv'
p5
aS'polarity_csv/polarity_4.csv'
p6
aS'polarity_csv/polarity_5.csv'
p7
aS'polarity_csv/polarity_6.csv'
p8
aS'polarity_csv/polarity_7.csv'
p9
aS'polarity_csv/polarity_8.csv'
p10
aS'polarity_csv/polarity_9.csv'
p11
aS'polarity_csv/polarity_10.csv'
p12
asS'Title'
p13
(lp14
S'Westley Allan Dodd - Last Interview before Execution'
p15
aS'Confronts Serial Killer & Causes Him To Walk Out Of The Interview!'
p16
aS'Travis Scott Shows Off His Broadway Musical Abilities'
p17
aS"Highlights from Theresa May's LBC phone-in"
p18
aS'ISRAEL POLITICS: Interview with Seth Frantzman'
p19
aS'Ali G - Ice Cream Glove Business - Donald Trump'
p20
aS'Interview with Charles Manson'
p21
aS'Enes Kanter Interview with VICE NEWS'
p22
aS'"I CAME TO MAKE HISTORY" City 5-0 Fulham Yaya Toure post-match interview'
p23
aS'Klay Thompson interview (21 Pts, 8 Reb, 2 Ast) | Pistons def Warroirs 111-102'
p24
asS'URL'
p25
(lp26
S'https://www.youtube.com/watch?v=zkpelP3x0mw'
p27
aS'https://www.youtube.com/watch?v=w3SXzjAfJLk'
p28
aS'https://www.youtube.com/watch?v=QV9nArq7phA'
p29
aS'https://www.youtube.com/watch?v=OtgLfXqBt1o'
p30
aS'https://www.youtube.com/watch?v=FQ6PR2LsnZw'
p31
aS'https://www.youtube.com/watch?v=PDu9CvbrnlM'
p32
aS'https://www.youtube.com/watch?v=y2Eu_fUjNig'
p33
aS'https://www.youtube.com/watch?v=dw3iE96IWVk'
p34
aS'https://www.youtube.com/watch?v=dNs-sf4kqZc'
p35
aS'https://www.youtube.com/watch?v=Ad-rx-ZP7IM'
p36
asS'Captions'
p37
(lp38
S'subtitles/1.srt'
p39
aS'subtitles/2.srt'
p40
aS'subtitles/3.srt'
p41
aS'subtitles/4.srt'
p42
aS'subtitles/5.srt'
p43
aS'subtitles/6.srt'
p44
aS'subtitles/7.srt'
p45
aS'subtitles/8.srt'
p46
aS'subtitles/9.srt'
p47
aS'subtitles/10.srt'
p48
asS'Audio'
p49
(lp50
S'audio/1.wav'
p51
aS'audio/2.wav'
p52
aS'audio/3.wav'
p53
aS'audio/4.wav'
p54
aS'audio/5.wav'
p55
aS'audio/6.wav'
p56
aS'audio/7.wav'
p57
aS'audio/8.wav'
p58
aS'audio/9.wav'
p59
aS'audio/10.wav'
p60
asS'Pickle'
p61
(lp62
S'pickle_lists/polarity_1.p'
p63
aS'pickle_lists/polarity_2.p'
p64
aS'pickle_lists/polarity_3.p'
p65
aS'pickle_lists/polarity_4.p'
p66
aS'pickle_lists/polarity_5.p'
p67
aS'pickle_lists/polarity_6.p'
p68
aS'pickle_lists/polarity_7.p'
p69
aS'pickle_lists/polarity_8.p'
p70
aS'pickle_lists/polarity_9.p'
p71
aS'pickle_lists/polarity_10.p'
p72
asS'Id'
p73
(lp74
S'1'
p75
aS'2'
p76
aS'3'
p77
aS'4'
p78
aS'5'
p79
aS'6'
p80
aS'7'
p81
aS'8'
p82
aS'9'
p83
aS'10'
p84
as.