(dp0
S'Title'
p1
(lp2
S'Westley Allan Dodd - Last Interview before Execution'
p3
aS'Confronts Serial Killer & Causes Him To Walk Out Of The Interview!'
p4
aS'Travis Scott Shows Off His Broadway Musical Abilities'
p5
aS"Highlights from Theresa May's LBC phone-in"
p6
aS'ISRAEL POLITICS: Interview with Seth Frantzman'
p7
asS'URL'
p8
(lp9
S'https://www.youtube.com/watch?v=zkpelP3x0mw'
p10
aS'https://www.youtube.com/watch?v=w3SXzjAfJLk'
p11
aS'https://www.youtube.com/watch?v=QV9nArq7phA'
p12
aS'https://www.youtube.com/watch?v=OtgLfXqBt1o'
p13
aS'https://www.youtube.com/watch?v=FQ6PR2LsnZw'
p14
asS'Captions Polarity Csv'
p15
(lp16
S'polarity_csv/polarity_1.csv'
p17
aS'polarity_csv/polarity_2.csv'
p18
aS'polarity_csv/polarity_3.csv'
p19
aS'polarity_csv/polarity_4.csv'
p20
aS'polarity_csv/polarity_5.csv'
p21
asS'Relative Path'
p22
(lp23
S'audio/1.wav'
p24
aS'audio/2.wav'
p25
aS'audio/3.wav'
p26
aS'audio/4.wav'
p27
aS'audio/5.wav'
p28
asS'Pickle'
p29
(lp30
S'pickle_lists/polarity_1.p'
p31
aS'pickle_lists/polarity_2.p'
p32
aS'pickle_lists/polarity_3.p'
p33
aS'pickle_listspolarity_4.p'
p34
aS'pickle_lists/polarity_5.p'
p35
asS'id'
p36
(lp37
S'1'
p38
aS'2'
p39
aS'3'
p40
aS'4'
p41
aS'5'
p42
as.