(lp0
(ccopy_reg
_reconstructor
p1
(cpysrt.srttime
SubRipTime
p2
c__builtin__
object
p3
Ntp4
Rp5
(dp6
S'ordinal'
p7
I5329
sbF0.0
tp8
a(g1
(g2
g3
Ntp9
Rp10
(dp11
g7
I8629
sbF0.13636363636363635
tp12
a(g1
(g2
g3
Ntp13
Rp14
(dp15
g7
I13009
sbF0.0
tp16
a(g1
(g2
g3
Ntp17
Rp18
(dp19
g7
I15770
sbF0.0
tp20
a(g1
(g2
g3
Ntp21
Rp22
(dp23
g7
I20450
sbF0.4
tp24
a(g1
(g2
g3
Ntp25
Rp26
(dp27
g7
I25220
sbF0.0
tp28
a(g1
(g2
g3
Ntp29
Rp30
(dp31
g7
I31429
sbF0.19749999999999998
tp32
a(g1
(g2
g3
Ntp33
Rp34
(dp35
g7
I33979
sbF0.03333333333333336
tp36
a(g1
(g2
g3
Ntp37
Rp38
(dp39
g7
I41540
sbF-0.037500000000000006
tp40
a(g1
(g2
g3
Ntp41
Rp42
(dp43
g7
I43729
sbF-0.037500000000000006
tp44
a(g1
(g2
g3
Ntp45
Rp46
(dp47
g7
I47209
sbF0.2
tp48
a(g1
(g2
g3
Ntp49
Rp50
(dp51
g7
I49459
sbF0.2
tp52
a(g1
(g2
g3
Ntp53
Rp54
(dp55
g7
I53209
sbF-0.04910714285714286
tp56
a(g1
(g2
g3
Ntp57
Rp58
(dp59
g7
I55580
sbF-0.3888888888888889
tp60
a(g1
(g2
g3
Ntp61
Rp62
(dp63
g7
I64189
sbF-0.04999999999999999
tp64
a(g1
(g2
g3
Ntp65
Rp66
(dp67
g7
I66830
sbF-0.04999999999999999
tp68
a(g1
(g2
g3
Ntp69
Rp70
(dp71
g7
I71109
sbF0.0
tp72
a(g1
(g2
g3
Ntp73
Rp74
(dp75
g7
I73700
sbF0.0
tp76
a(g1
(g2
g3
Ntp77
Rp78
(dp79
g7
I78170
sbF-0.04999999999999999
tp80
a(g1
(g2
g3
Ntp81
Rp82
(dp83
g7
I83990
sbF0.32857142857142857
tp84
a(g1
(g2
g3
Ntp85
Rp86
(dp87
g7
I88210
sbF0.1
tp88
a(g1
(g2
g3
Ntp89
Rp90
(dp91
g7
I91340
sbF0.1
tp92
a(g1
(g2
g3
Ntp93
Rp94
(dp95
g7
I93920
sbF0.325
tp96
a(g1
(g2
g3
Ntp97
Rp98
(dp99
g7
I100460
sbF0.0
tp100
a(g1
(g2
g3
Ntp101
Rp102
(dp103
g7
I104510
sbF0.125
tp104
a(g1
(g2
g3
Ntp105
Rp106
(dp107
g7
I108469
sbF0.26666666666666666
tp108
a(g1
(g2
g3
Ntp109
Rp110
(dp111
g7
I111200
sbF0.3
tp112
a(g1
(g2
g3
Ntp113
Rp114
(dp115
g7
I114050
sbF0.26
tp116
a(g1
(g2
g3
Ntp117
Rp118
(dp119
g7
I120859
sbF0.0
tp120
a(g1
(g2
g3
Ntp121
Rp122
(dp123
g7
I124819
sbF0.5
tp124
a(g1
(g2
g3
Ntp125
Rp126
(dp127
g7
I127340
sbF0.5
tp128
a(g1
(g2
g3
Ntp129
Rp130
(dp131
g7
I129710
sbF-0.1
tp132
a(g1
(g2
g3
Ntp133
Rp134
(dp135
g7
I131990
sbF-0.1
tp136
a(g1
(g2
g3
Ntp137
Rp138
(dp139
g7
I134000
sbF0.0
tp140
a(g1
(g2
g3
Ntp141
Rp142
(dp143
g7
I136220
sbF0.3
tp144
a(g1
(g2
g3
Ntp145
Rp146
(dp147
g7
I140210
sbF-0.0625
tp148
a(g1
(g2
g3
Ntp149
Rp150
(dp151
g7
I143270
sbF0.125
tp152
a(g1
(g2
g3
Ntp153
Rp154
(dp155
g7
I145520
sbF0.25
tp156
a(g1
(g2
g3
Ntp157
Rp158
(dp159
g7
I147589
sbF0.0
tp160
a(g1
(g2
g3
Ntp161
Rp162
(dp163
g7
I150380
sbF0.5
tp164
a(g1
(g2
g3
Ntp165
Rp166
(dp167
g7
I156300
sbF0.2
tp168
a.