(lp0
(ccopy_reg
_reconstructor
p1
(cpysrt.srttime
SubRipTime
p2
c__builtin__
object
p3
Ntp4
Rp5
(dp6
S'ordinal'
p7
I7130
sbF1.0
tp8
a(g1
(g2
g3
Ntp9
Rp10
(dp11
g7
I12560
sbF-0.048148148148148155
tp12
a(g1
(g2
g3
Ntp13
Rp14
(dp15
g7
I14959
sbF0.12222222222222222
tp16
a(g1
(g2
g3
Ntp17
Rp18
(dp19
g7
I17540
sbF0.1
tp20
a(g1
(g2
g3
Ntp21
Rp22
(dp23
g7
I20359
sbF0.0
tp24
a(g1
(g2
g3
Ntp25
Rp26
(dp27
g7
I24480
sbF0.03125
tp28
a(g1
(g2
g3
Ntp29
Rp30
(dp31
g7
I26690
sbF-0.0763888888888889
tp32
a(g1
(g2
g3
Ntp33
Rp34
(dp35
g7
I28800
sbF-0.2916666666666667
tp36
a(g1
(g2
g3
Ntp37
Rp38
(dp39
g7
I31500
sbF0.0
tp40
a(g1
(g2
g3
Ntp41
Rp42
(dp43
g7
I34170
sbF-0.05555555555555555
tp44
a(g1
(g2
g3
Ntp45
Rp46
(dp47
g7
I37170
sbF0.09583333333333335
tp48
a(g1
(g2
g3
Ntp49
Rp50
(dp51
g7
I42030
sbF0.30000000000000004
tp52
a(g1
(g2
g3
Ntp53
Rp54
(dp55
g7
I44820
sbF0.43333333333333335
tp56
a(g1
(g2
g3
Ntp57
Rp58
(dp59
g7
I48479
sbF0.7
tp60
a(g1
(g2
g3
Ntp61
Rp62
(dp63
g7
I52040
sbF0.0
tp64
a(g1
(g2
g3
Ntp65
Rp66
(dp67
g7
I54470
sbF0.35
tp68
a(g1
(g2
g3
Ntp69
Rp70
(dp71
g7
I59479
sbF0.0
tp72
a(g1
(g2
g3
Ntp73
Rp74
(dp75
g7
I63470
sbF0.0
tp76
a(g1
(g2
g3
Ntp77
Rp78
(dp79
g7
I65870
sbF0.0
tp80
a(g1
(g2
g3
Ntp81
Rp82
(dp83
g7
I68120
sbF0.0
tp84
a(g1
(g2
g3
Ntp85
Rp86
(dp87
g7
I70399
sbF0.0
tp88
a(g1
(g2
g3
Ntp89
Rp90
(dp91
g7
I75380
sbF0.0
tp92
a(g1
(g2
g3
Ntp93
Rp94
(dp95
g7
I78300
sbF0.0
tp96
a(g1
(g2
g3
Ntp97
Rp98
(dp99
g7
I80350
sbF0.0
tp100
a(g1
(g2
g3
Ntp101
Rp102
(dp103
g7
I88670
sbF0.1
tp104
a(g1
(g2
g3
Ntp105
Rp106
(dp107
g7
I94270
sbF0.3
tp108
a(g1
(g2
g3
Ntp109
Rp110
(dp111
g7
I98110
sbF0.5
tp112
a(g1
(g2
g3
Ntp113
Rp114
(dp115
g7
I100360
sbF0.35
tp116
a(g1
(g2
g3
Ntp117
Rp118
(dp119
g7
I105250
sbF-0.3125
tp120
a(g1
(g2
g3
Ntp121
Rp122
(dp123
g7
I109180
sbF0.525
tp124
a(g1
(g2
g3
Ntp125
Rp126
(dp127
g7
I112800
sbF0.0
tp128
a(g1
(g2
g3
Ntp129
Rp130
(dp131
g7
I120760
sbF-0.1
tp132
a(g1
(g2
g3
Ntp133
Rp134
(dp135
g7
I131790
sbF0.0
tp136
a(g1
(g2
g3
Ntp137
Rp138
(dp139
g7
I133800
sbF0.5
tp140
a(g1
(g2
g3
Ntp141
Rp142
(dp143
g7
I137580
sbF0.39285714285714285
tp144
a(g1
(g2
g3
Ntp145
Rp146
(dp147
g7
I139920
sbF0.5428571428571429
tp148
a.