(lp0
(ccopy_reg
_reconstructor
p1
(cpysrt.srttime
SubRipTime
p2
c__builtin__
object
p3
Ntp4
Rp5
(dp6
S'ordinal'
p7
I11590
sbF-0.35
tp8
a(g1
(g2
g3
Ntp9
Rp10
(dp11
g7
I13900
sbF0.0
tp12
a(g1
(g2
g3
Ntp13
Rp14
(dp15
g7
I16510
sbF0.6
tp16
a(g1
(g2
g3
Ntp17
Rp18
(dp19
g7
I19210
sbF0.425
tp20
a(g1
(g2
g3
Ntp21
Rp22
(dp23
g7
I21519
sbF0.125
tp24
a(g1
(g2
g3
Ntp25
Rp26
(dp27
g7
I23800
sbF0.175
tp28
a(g1
(g2
g3
Ntp29
Rp30
(dp31
g7
I27790
sbF0.0
tp32
a(g1
(g2
g3
Ntp33
Rp34
(dp35
g7
I30550
sbF0.0
tp36
a(g1
(g2
g3
Ntp37
Rp38
(dp39
g7
I32740
sbF0.0
tp40
a(g1
(g2
g3
Ntp41
Rp42
(dp43
g7
I35049
sbF0.0
tp44
a(g1
(g2
g3
Ntp45
Rp46
(dp47
g7
I37780
sbF-0.5
tp48
a(g1
(g2
g3
Ntp49
Rp50
(dp51
g7
I40090
sbF-0.5
tp52
a(g1
(g2
g3
Ntp53
Rp54
(dp55
g7
I42220
sbF-0.5
tp56
a(g1
(g2
g3
Ntp57
Rp58
(dp59
g7
I44979
sbF-0.16666666666666666
tp60
a(g1
(g2
g3
Ntp61
Rp62
(dp63
g7
I47319
sbF-0.13333333333333333
tp64
a(g1
(g2
g3
Ntp65
Rp66
(dp67
g7
I49450
sbF-0.1
tp68
a(g1
(g2
g3
Ntp69
Rp70
(dp71
g7
I51669
sbF0.0
tp72
a(g1
(g2
g3
Ntp73
Rp74
(dp75
g7
I56020
sbF-0.13333333333333333
tp76
a(g1
(g2
g3
Ntp77
Rp78
(dp79
g7
I58660
sbF-0.1
tp80
a(g1
(g2
g3
Ntp81
Rp82
(dp83
g7
I61779
sbF0.0
tp84
a(g1
(g2
g3
Ntp85
Rp86
(dp87
g7
I65710
sbF0.0
tp88
a(g1
(g2
g3
Ntp89
Rp90
(dp91
g7
I67780
sbF0.0
tp92
a(g1
(g2
g3
Ntp93
Rp94
(dp95
g7
I70810
sbF0.6
tp96
a(g1
(g2
g3
Ntp97
Rp98
(dp99
g7
I72850
sbF0.21666666666666667
tp100
a(g1
(g2
g3
Ntp101
Rp102
(dp103
g7
I75039
sbF-0.16666666666666666
tp104
a(g1
(g2
g3
Ntp105
Rp106
(dp107
g7
I77700
sbF-0.05000000000000002
tp108
a(g1
(g2
g3
Ntp109
Rp110
(dp111
g7
I80590
sbF-0.05000000000000002
tp112
a(g1
(g2
g3
Ntp113
Rp114
(dp115
g7
I82990
sbF0.10000000000000002
tp116
a(g1
(g2
g3
Ntp117
Rp118
(dp119
g7
I87160
sbF-0.5
tp120
a(g1
(g2
g3
Ntp121
Rp122
(dp123
g7
I92020
sbF0.0
tp124
a(g1
(g2
g3
Ntp125
Rp126
(dp127
g7
I97510
sbF0.14285714285714285
tp128
a(g1
(g2
g3
Ntp129
Rp130
(dp131
g7
I103990
sbF0.0
tp132
a(g1
(g2
g3
Ntp133
Rp134
(dp135
g7
I107649
sbF0.0
tp136
a(g1
(g2
g3
Ntp137
Rp138
(dp139
g7
I111520
sbF-0.5
tp140
a(g1
(g2
g3
Ntp141
Rp142
(dp143
g7
I114490
sbF-0.5
tp144
a(g1
(g2
g3
Ntp145
Rp146
(dp147
g7
I118090
sbF-0.5
tp148
a(g1
(g2
g3
Ntp149
Rp150
(dp151
g7
I123929
sbF-0.5
tp152
a(g1
(g2
g3
Ntp153
Rp154
(dp155
g7
I128560
sbF0.0
tp156
a(g1
(g2
g3
Ntp157
Rp158
(dp159
g7
I132040
sbF0.16666666666666666
tp160
a(g1
(g2
g3
Ntp161
Rp162
(dp163
g7
I134350
sbF0.1875
tp164
a(g1
(g2
g3
Ntp165
Rp166
(dp167
g7
I142270
sbF-0.18333333333333332
tp168
a(g1
(g2
g3
Ntp169
Rp170
(dp171
g7
I150110
sbF0.35
tp172
a(g1
(g2
g3
Ntp173
Rp174
(dp175
g7
I153170
sbF0.2
tp176
a(g1
(g2
g3
Ntp177
Rp178
(dp179
g7
I155509
sbF0.0
tp180
a(g1
(g2
g3
Ntp181
Rp182
(dp183
g7
I159770
sbF0.0
tp184
a(g1
(g2
g3
Ntp185
Rp186
(dp187
g7
I163339
sbF0.0
tp188
a(g1
(g2
g3
Ntp189
Rp190
(dp191
g7
I169250
sbF0.0
tp192
a(g1
(g2
g3
Ntp193
Rp194
(dp195
g7
I171470
sbF0.0
tp196
a(g1
(g2
g3
Ntp197
Rp198
(dp199
g7
I174229
sbF0.2
tp200
a(g1
(g2
g3
Ntp201
Rp202
(dp203
g7
I179930
sbF0.0
tp204
a(g1
(g2
g3
Ntp205
Rp206
(dp207
g7
I181940
sbF0.0
tp208
a(g1
(g2
g3
Ntp209
Rp210
(dp211
g7
I184970
sbF0.0
tp212
a(g1
(g2
g3
Ntp213
Rp214
(dp215
g7
I188420
sbF0.0
tp216
a(g1
(g2
g3
Ntp217
Rp218
(dp219
g7
I193280
sbF0.25
tp220
a(g1
(g2
g3
Ntp221
Rp222
(dp223
g7
I196009
sbF0.024999999999999994
tp224
a(g1
(g2
g3
Ntp225
Rp226
(dp227
g7
I200869
sbF-0.25
tp228
a(g1
(g2
g3
Ntp229
Rp230
(dp231
g7
I204620
sbF-0.3
tp232
a(g1
(g2
g3
Ntp233
Rp234
(dp235
g7
I207050
sbF0.4
tp236
a(g1
(g2
g3
Ntp237
Rp238
(dp239
g7
I210470
sbF0.18333333333333335
tp240
a(g1
(g2
g3
Ntp241
Rp242
(dp243
g7
I212960
sbF0.07500000000000001
tp244
a(g1
(g2
g3
Ntp245
Rp246
(dp247
g7
I218930
sbF0.11666666666666668
tp248
a(g1
(g2
g3
Ntp249
Rp250
(dp251
g7
I221990
sbF0.35
tp252
a(g1
(g2
g3
Ntp253
Rp254
(dp255
g7
I225530
sbF0.0
tp256
a(g1
(g2
g3
Ntp257
Rp258
(dp259
g7
I229670
sbF0.0
tp260
a(g1
(g2
g3
Ntp261
Rp262
(dp263
g7
I233420
sbF0.0
tp264
a(g1
(g2
g3
Ntp265
Rp266
(dp267
g7
I236960
sbF-0.3
tp268
a(g1
(g2
g3
Ntp269
Rp270
(dp271
g7
I239540
sbF-0.19999999999999996
tp272
a(g1
(g2
g3
Ntp273
Rp274
(dp275
g7
I241580
sbF0.3
tp276
a(g1
(g2
g3
Ntp277
Rp278
(dp279
g7
I243650
sbF0.3
tp280
a(g1
(g2
g3
Ntp281
Rp282
(dp283
g7
I249050
sbF-0.0062500000000000056
tp284
a(g1
(g2
g3
Ntp285
Rp286
(dp287
g7
I254570
sbF-0.346875
tp288
a(g1
(g2
g3
Ntp289
Rp290
(dp291
g7
I256729
sbF-0.46249999999999997
tp292
a(g1
(g2
g3
Ntp293
Rp294
(dp295
g7
I261500
sbF0.0
tp296
a(g1
(g2
g3
Ntp297
Rp298
(dp299
g7
I263800
sbF0.0
tp300
a(g1
(g2
g3
Ntp301
Rp302
(dp303
g7
I267290
sbF0.0
tp304
a(g1
(g2
g3
Ntp305
Rp306
(dp307
g7
I270200
sbF0.3499999999999999
tp308
a(g1
(g2
g3
Ntp309
Rp310
(dp311
g7
I272380
sbF0.27499999999999997
tp312
a(g1
(g2
g3
Ntp313
Rp314
(dp315
g7
I275390
sbF-0.2916666666666667
tp316
a(g1
(g2
g3
Ntp317
Rp318
(dp319
g7
I278660
sbF-0.2916666666666667
tp320
a(g1
(g2
g3
Ntp321
Rp322
(dp323
g7
I281510
sbF0.225
tp324
a(g1
(g2
g3
Ntp325
Rp326
(dp327
g7
I289070
sbF0.0
tp328
a(g1
(g2
g3
Ntp329
Rp330
(dp331
g7
I291170
sbF0.0
tp332
a(g1
(g2
g3
Ntp333
Rp334
(dp335
g7
I293450
sbF0.3
tp336
a(g1
(g2
g3
Ntp337
Rp338
(dp339
g7
I297590
sbF0.0
tp340
a(g1
(g2
g3
Ntp341
Rp342
(dp343
g7
I303620
sbF0.1
tp344
a(g1
(g2
g3
Ntp345
Rp346
(dp347
g7
I307990
sbF0.1
tp348
a(g1
(g2
g3
Ntp349
Rp350
(dp351
g7
I310340
sbF0.0
tp352
a(g1
(g2
g3
Ntp353
Rp354
(dp355
g7
I313630
sbF0.0
tp356
a(g1
(g2
g3
Ntp357
Rp358
(dp359
g7
I317360
sbF-0.3138888888888889
tp360
a(g1
(g2
g3
Ntp361
Rp362
(dp363
g7
I321620
sbF-0.2604166666666667
tp364
a(g1
(g2
g3
Ntp365
Rp366
(dp367
g7
I324050
sbF-0.20625
tp368
a(g1
(g2
g3
Ntp369
Rp370
(dp371
g7
I327680
sbF-0.3125
tp372
a(g1
(g2
g3
Ntp373
Rp374
(dp375
g7
I331610
sbF-0.03125
tp376
a(g1
(g2
g3
Ntp377
Rp378
(dp379
g7
I334240
sbF0.11111111111111112
tp380
a(g1
(g2
g3
Ntp381
Rp382
(dp383
g7
I337400
sbF0.04166666666666667
tp384
a(g1
(g2
g3
Ntp385
Rp386
(dp387
g7
I342230
sbF0.0
tp388
a(g1
(g2
g3
Ntp389
Rp390
(dp391
g7
I346210
sbF0.0
tp392
a(g1
(g2
g3
Ntp393
Rp394
(dp395
g7
I349450
sbF0.0
tp396
a(g1
(g2
g3
Ntp397
Rp398
(dp399
g7
I352400
sbF0.0
tp400
a(g1
(g2
g3
Ntp401
Rp402
(dp403
g7
I354560
sbF0.6
tp404
a(g1
(g2
g3
Ntp405
Rp406
(dp407
g7
I356960
sbF0.6
tp408
a(g1
(g2
g3
Ntp409
Rp410
(dp411
g7
I359030
sbF0.0
tp412
a(g1
(g2
g3
Ntp413
Rp414
(dp415
g7
I366100
sbF0.225
tp416
a(g1
(g2
g3
Ntp417
Rp418
(dp419
g7
I368560
sbF0.2
tp420
a(g1
(g2
g3
Ntp421
Rp422
(dp423
g7
I370750
sbF0.0
tp424
a(g1
(g2
g3
Ntp425
Rp426
(dp427
g7
I373540
sbF-0.1
tp428
a(g1
(g2
g3
Ntp429
Rp430
(dp431
g7
I376780
sbF-0.2
tp432
a(g1
(g2
g3
Ntp433
Rp434
(dp435
g7
I382210
sbF0.0
tp436
a(g1
(g2
g3
Ntp437
Rp438
(dp439
g7
I387070
sbF0.0
tp440
a(g1
(g2
g3
Ntp441
Rp442
(dp443
g7
I390790
sbF0.0
tp444
a(g1
(g2
g3
Ntp445
Rp446
(dp447
g7
I399159
sbF0.35
tp448
a(g1
(g2
g3
Ntp449
Rp450
(dp451
g7
I401350
sbF0.35
tp452
a(g1
(g2
g3
Ntp453
Rp454
(dp455
g7
I404170
sbF0.2
tp456
a(g1
(g2
g3
Ntp457
Rp458
(dp459
g7
I447070
sbF0.2
tp460
a.