(lp0
(ccopy_reg
_reconstructor
p1
(cpysrt.srttime
SubRipTime
p2
c__builtin__
object
p3
Ntp4
Rp5
(dp6
S'ordinal'
p7
I6200
sbF0.0
tp8
a(g1
(g2
g3
Ntp9
Rp10
(dp11
g7
I8240
sbF-0.5
tp12
a(g1
(g2
g3
Ntp13
Rp14
(dp15
g7
I10580
sbF-0.5
tp16
a(g1
(g2
g3
Ntp17
Rp18
(dp19
g7
I13430
sbF0.0
tp20
a(g1
(g2
g3
Ntp21
Rp22
(dp23
g7
I15919
sbF0.0
tp24
a(g1
(g2
g3
Ntp25
Rp26
(dp27
g7
I19250
sbF0.0
tp28
a(g1
(g2
g3
Ntp29
Rp30
(dp31
g7
I24200
sbF0.0
tp32
a(g1
(g2
g3
Ntp33
Rp34
(dp35
g7
I28269
sbF0.0
tp36
a(g1
(g2
g3
Ntp37
Rp38
(dp39
g7
I30560
sbF0.0
tp40
a(g1
(g2
g3
Ntp41
Rp42
(dp43
g7
I34940
sbF-0.175
tp44
a(g1
(g2
g3
Ntp45
Rp46
(dp47
g7
I39049
sbF-0.175
tp48
a(g1
(g2
g3
Ntp49
Rp50
(dp51
g7
I43670
sbF-0.1
tp52
a.