(lp0
(ccopy_reg
_reconstructor
p1
(cpysrt.srttime
SubRipTime
p2
c__builtin__
object
p3
Ntp4
Rp5
(dp6
S'ordinal'
p7
I11910
sbF0.2
tp8
a(g1
(g2
g3
Ntp9
Rp10
(dp11
g7
I30563
sbF0.0
tp12
a(g1
(g2
g3
Ntp13
Rp14
(dp15
g7
I37403
sbF0.0
tp16
a(g1
(g2
g3
Ntp17
Rp18
(dp19
g7
I41341
sbF0.0
tp20
a(g1
(g2
g3
Ntp21
Rp22
(dp23
g7
I44144
sbF-0.25
tp24
a(g1
(g2
g3
Ntp25
Rp26
(dp27
g7
I46812
sbF0.0
tp28
a(g1
(g2
g3
Ntp29
Rp30
(dp31
g7
I48914
sbF0.0
tp32
a(g1
(g2
g3
Ntp33
Rp34
(dp35
g7
I51150
sbF-0.3125
tp36
a(g1
(g2
g3
Ntp37
Rp38
(dp39
g7
I58357
sbF0.5
tp40
a(g1
(g2
g3
Ntp41
Rp42
(dp43
g7
I61728
sbF0.2
tp44
a(g1
(g2
g3
Ntp45
Rp46
(dp47
g7
I63729
sbF0.0
tp48
a(g1
(g2
g3
Ntp49
Rp50
(dp51
g7
I68801
sbF0.0
tp52
a(g1
(g2
g3
Ntp53
Rp54
(dp55
g7
I79679
sbF0.0
tp56
a(g1
(g2
g3
Ntp57
Rp58
(dp59
g7
I82515
sbF0.0
tp60
a(g1
(g2
g3
Ntp61
Rp62
(dp63
g7
I87986
sbF0.0
tp64
a(g1
(g2
g3
Ntp65
Rp66
(dp67
g7
I90856
sbF0.2
tp68
a(g1
(g2
g3
Ntp69
Rp70
(dp71
g7
I97163
sbF0.5
tp72
a(g1
(g2
g3
Ntp73
Rp74
(dp75
g7
I102835
sbF0.4928571428571428
tp76
a(g1
(g2
g3
Ntp77
Rp78
(dp79
g7
I107573
sbF-0.1875
tp80
a(g1
(g2
g3
Ntp81
Rp82
(dp83
g7
I109575
sbF0.0
tp84
a(g1
(g2
g3
Ntp85
Rp86
(dp87
g7
I114580
sbF0.16
tp88
a(g1
(g2
g3
Ntp89
Rp90
(dp91
g7
I116749
sbF0.0
tp92
a(g1
(g2
g3
Ntp93
Rp94
(dp95
g7
I124189
sbF0.25
tp96
a(g1
(g2
g3
Ntp97
Rp98
(dp99
g7
I126625
sbF0.25
tp100
a(g1
(g2
g3
Ntp101
Rp102
(dp103
g7
I131297
sbF0.0
tp104
a(g1
(g2
g3
Ntp105
Rp106
(dp107
g7
I137636
sbF0.0
tp108
a(g1
(g2
g3
Ntp109
Rp110
(dp111
g7
I142508
sbF0.0
tp112
a(g1
(g2
g3
Ntp113
Rp114
(dp115
g7
I145144
sbF0.0
tp116
a(g1
(g2
g3
Ntp117
Rp118
(dp119
g7
I153018
sbF0.0
tp120
a(g1
(g2
g3
Ntp121
Rp122
(dp123
g7
I155688
sbF0.1
tp124
a(g1
(g2
g3
Ntp125
Rp126
(dp127
g7
I161427
sbF-0.125
tp128
a(g1
(g2
g3
Ntp129
Rp130
(dp131
g7
I164664
sbF-0.05
tp132
a(g1
(g2
g3
Ntp133
Rp134
(dp135
g7
I166932
sbF0.2
tp136
a(g1
(g2
g3
Ntp137
Rp138
(dp139
g7
I179979
sbF0.0
tp140
a(g1
(g2
g3
Ntp141
Rp142
(dp143
g7
I182648
sbF0.0
tp144
a(g1
(g2
g3
Ntp145
Rp146
(dp147
g7
I192992
sbF0.0
tp148
a(g1
(g2
g3
Ntp149
Rp150
(dp151
g7
I195661
sbF-0.3125
tp152
a(g1
(g2
g3
Ntp153
Rp154
(dp155
g7
I201301
sbF0.0
tp156
a.