(lp0
(ccopy_reg
_reconstructor
p1
(cpysrt.srttime
SubRipTime
p2
c__builtin__
object
p3
Ntp4
Rp5
(dp6
S'ordinal'
p7
I4280
sbF0.20833333333333334
tp8
a(g1
(g2
g3
Ntp9
Rp10
(dp11
g7
I8810
sbF0.1875
tp12
a(g1
(g2
g3
Ntp13
Rp14
(dp15
g7
I11030
sbF0.5
tp16
a(g1
(g2
g3
Ntp17
Rp18
(dp19
g7
I15620
sbF0.7166666666666667
tp20
a(g1
(g2
g3
Ntp21
Rp22
(dp23
g7
I23240
sbF0.8
tp24
a(g1
(g2
g3
Ntp25
Rp26
(dp27
g7
I25849
sbF0.45
tp28
a(g1
(g2
g3
Ntp29
Rp30
(dp31
g7
I30019
sbF0.13333333333333333
tp32
a(g1
(g2
g3
Ntp33
Rp34
(dp35
g7
I32150
sbF0.2877777777777778
tp36
a(g1
(g2
g3
Ntp37
Rp38
(dp39
g7
I35060
sbF0.21111111111111114
tp40
a(g1
(g2
g3
Ntp41
Rp42
(dp43
g7
I50510
sbF0.0
tp44
a(g1
(g2
g3
Ntp45
Rp46
(dp47
g7
I60139
sbF0.6055555555555555
tp48
a(g1
(g2
g3
Ntp49
Rp50
(dp51
g7
I63860
sbF0.6055555555555555
tp52
a(g1
(g2
g3
Ntp53
Rp54
(dp55
g7
I68990
sbF0.0
tp56
a(g1
(g2
g3
Ntp57
Rp58
(dp59
g7
I71030
sbF0.0
tp60
a(g1
(g2
g3
Ntp61
Rp62
(dp63
g7
I74990
sbF0.0
tp64
a(g1
(g2
g3
Ntp65
Rp66
(dp67
g7
I77960
sbF0.0
tp68
a(g1
(g2
g3
Ntp69
Rp70
(dp71
g7
I83749
sbF0.0
tp72
a(g1
(g2
g3
Ntp73
Rp74
(dp75
g7
I87950
sbF0.3
tp76
a(g1
(g2
g3
Ntp77
Rp78
(dp79
g7
I91880
sbF0.07500000000000001
tp80
a(g1
(g2
g3
Ntp81
Rp82
(dp83
g7
I94999
sbF0.14444444444444446
tp84
a(g1
(g2
g3
Ntp85
Rp86
(dp87
g7
I97310
sbF0.3333333333333333
tp88
a(g1
(g2
g3
Ntp89
Rp90
(dp91
g7
I100219
sbF0.0
tp92
a(g1
(g2
g3
Ntp93
Rp94
(dp95
g7
I103010
sbF0.4
tp96
a(g1
(g2
g3
Ntp97
Rp98
(dp99
g7
I106039
sbF0.3666666666666667
tp100
a(g1
(g2
g3
Ntp101
Rp102
(dp103
g7
I109280
sbF0.3333333333333333
tp104
a(g1
(g2
g3
Ntp105
Rp106
(dp107
g7
I113330
sbF0.0
tp108
a(g1
(g2
g3
Ntp109
Rp110
(dp111
g7
I116899
sbF0.0
tp112
a(g1
(g2
g3
Ntp113
Rp114
(dp115
g7
I119240
sbF0.0
tp116
a(g1
(g2
g3
Ntp117
Rp118
(dp119
g7
I121910
sbF0.2
tp120
a(g1
(g2
g3
Ntp121
Rp122
(dp123
g7
I126660
sbF0.8
tp124
a(g1
(g2
g3
Ntp125
Rp126
(dp127
g7
I135000
sbF0.0
tp128
a(g1
(g2
g3
Ntp129
Rp130
(dp131
g7
I139199
sbF0.425
tp132
a(g1
(g2
g3
Ntp133
Rp134
(dp135
g7
I143160
sbF0.52
tp136
a(g1
(g2
g3
Ntp137
Rp138
(dp139
g7
I147059
sbF0.125
tp140
a(g1
(g2
g3
Ntp141
Rp142
(dp143
g7
I150570
sbF0.0
tp144
a(g1
(g2
g3
Ntp145
Rp146
(dp147
g7
I152610
sbF0.5
tp148
a(g1
(g2
g3
Ntp149
Rp150
(dp151
g7
I166830
sbF0.01874999999999999
tp152
a(g1
(g2
g3
Ntp153
Rp154
(dp155
g7
I172740
sbF0.5
tp156
a(g1
(g2
g3
Ntp157
Rp158
(dp159
g7
I174930
sbF0.5
tp160
a(g1
(g2
g3
Ntp161
Rp162
(dp163
g7
I177330
sbF0.0
tp164
a(g1
(g2
g3
Ntp165
Rp166
(dp167
g7
I181080
sbF0.334375
tp168
a(g1
(g2
g3
Ntp169
Rp170
(dp171
g7
I186630
sbF0.0
tp172
a(g1
(g2
g3
Ntp173
Rp174
(dp175
g7
I190110
sbF0.5
tp176
a(g1
(g2
g3
Ntp177
Rp178
(dp179
g7
I192240
sbF1.0
tp180
a(g1
(g2
g3
Ntp181
Rp182
(dp183
g7
I201090
sbF0.0
tp184
a(g1
(g2
g3
Ntp185
Rp186
(dp187
g7
I204539
sbF0.0
tp188
a(g1
(g2
g3
Ntp189
Rp190
(dp191
g7
I209670
sbF0.2
tp192
a.