(lp0
(ccopy_reg
_reconstructor
p1
(cpysrt.srttime
SubRipTime
p2
c__builtin__
object
p3
Ntp4
Rp5
(dp6
S'ordinal'
p7
I1634
sbF0.0
tp8
a(g1
(g2
g3
Ntp9
Rp10
(dp11
g7
I2868
sbF0.0
tp12
a(g1
(g2
g3
Ntp13
Rp14
(dp15
g7
I4604
sbF0.25
tp16
a(g1
(g2
g3
Ntp17
Rp18
(dp19
g7
I5971
sbF0.4
tp20
a(g1
(g2
g3
Ntp21
Rp22
(dp23
g7
I7707
sbF-0.3125
tp24
a(g1
(g2
g3
Ntp25
Rp26
(dp27
g7
I11910
sbF0.2
tp28
a(g1
(g2
g3
Ntp29
Rp30
(dp31
g7
I13746
sbF1.0
tp32
a(g1
(g2
g3
Ntp33
Rp34
(dp35
g7
I19119
sbF0.0
tp36
a(g1
(g2
g3
Ntp37
Rp38
(dp39
g7
I20419
sbF0.0
tp40
a(g1
(g2
g3
Ntp41
Rp42
(dp43
g7
I22021
sbF0.0
tp44
a(g1
(g2
g3
Ntp45
Rp46
(dp47
g7
I26092
sbF0.0
tp48
a(g1
(g2
g3
Ntp49
Rp50
(dp51
g7
I27794
sbF0.024999999999999994
tp52
a(g1
(g2
g3
Ntp53
Rp54
(dp55
g7
I30563
sbF0.0
tp56
a(g1
(g2
g3
Ntp57
Rp58
(dp59
g7
I37403
sbF0.0
tp60
a(g1
(g2
g3
Ntp61
Rp62
(dp63
g7
I38604
sbF0.0
tp64
a(g1
(g2
g3
Ntp65
Rp66
(dp67
g7
I41341
sbF0.0
tp68
a(g1
(g2
g3
Ntp69
Rp70
(dp71
g7
I44144
sbF-0.25
tp72
a(g1
(g2
g3
Ntp73
Rp74
(dp75
g7
I46812
sbF0.0
tp76
a(g1
(g2
g3
Ntp77
Rp78
(dp79
g7
I48914
sbF0.0
tp80
a(g1
(g2
g3
Ntp81
Rp82
(dp83
g7
I51150
sbF-0.3125
tp84
a(g1
(g2
g3
Ntp85
Rp86
(dp87
g7
I52618
sbF0.0
tp88
a(g1
(g2
g3
Ntp89
Rp90
(dp91
g7
I54454
sbF0.0
tp92
a(g1
(g2
g3
Ntp93
Rp94
(dp95
g7
I58357
sbF0.5
tp96
a(g1
(g2
g3
Ntp97
Rp98
(dp99
g7
I61728
sbF0.2
tp100
a(g1
(g2
g3
Ntp101
Rp102
(dp103
g7
I63729
sbF0.0
tp104
a(g1
(g2
g3
Ntp105
Rp106
(dp107
g7
I65431
sbF0.0
tp108
a(g1
(g2
g3
Ntp109
Rp110
(dp111
g7
I68801
sbF0.0
tp112
a(g1
(g2
g3
Ntp113
Rp114
(dp115
g7
I73173
sbF0.0
tp116
a(g1
(g2
g3
Ntp117
Rp118
(dp119
g7
I75141
sbF-0.15
tp120
a(g1
(g2
g3
Ntp121
Rp122
(dp123
g7
I79679
sbF0.0
tp124
a(g1
(g2
g3
Ntp125
Rp126
(dp127
g7
I82515
sbF0.0
tp128
a(g1
(g2
g3
Ntp129
Rp130
(dp131
g7
I84317
sbF0.0
tp132
a(g1
(g2
g3
Ntp133
Rp134
(dp135
g7
I85685
sbF0.0
tp136
a(g1
(g2
g3
Ntp137
Rp138
(dp139
g7
I87986
sbF0.0
tp140
a(g1
(g2
g3
Ntp141
Rp142
(dp143
g7
I90856
sbF0.2
tp144
a(g1
(g2
g3
Ntp145
Rp146
(dp147
g7
I92558
sbF0.5
tp148
a(g1
(g2
g3
Ntp149
Rp150
(dp151
g7
I93592
sbF0.0
tp152
a(g1
(g2
g3
Ntp153
Rp154
(dp155
g7
I97163
sbF0.5
tp156
a(g1
(g2
g3
Ntp157
Rp158
(dp159
g7
I98731
sbF0.0
tp160
a(g1
(g2
g3
Ntp161
Rp162
(dp163
g7
I100066
sbF0.0
tp164
a(g1
(g2
g3
Ntp165
Rp166
(dp167
g7
I102835
sbF0.4928571428571428
tp168
a(g1
(g2
g3
Ntp169
Rp170
(dp171
g7
I104270
sbF0.0
tp172
a(g1
(g2
g3
Ntp173
Rp174
(dp175
g7
I107573
sbF-0.1875
tp176
a(g1
(g2
g3
Ntp177
Rp178
(dp179
g7
I109575
sbF0.0
tp180
a(g1
(g2
g3
Ntp181
Rp182
(dp183
g7
I111377
sbF0.0
tp184
a(g1
(g2
g3
Ntp185
Rp186
(dp187
g7
I114580
sbF0.16
tp188
a(g1
(g2
g3
Ntp189
Rp190
(dp191
g7
I116749
sbF0.0
tp192
a(g1
(g2
g3
Ntp193
Rp194
(dp195
g7
I120220
sbF0.2
tp196
a(g1
(g2
g3
Ntp197
Rp198
(dp199
g7
I121520
sbF0.0
tp200
a(g1
(g2
g3
Ntp201
Rp202
(dp203
g7
I124189
sbF0.25
tp204
a(g1
(g2
g3
Ntp205
Rp206
(dp207
g7
I126625
sbF0.25
tp208
a(g1
(g2
g3
Ntp209
Rp210
(dp211
g7
I131297
sbF0.0
tp212
a(g1
(g2
g3
Ntp213
Rp214
(dp215
g7
I135601
sbF0.0
tp216
a(g1
(g2
g3
Ntp217
Rp218
(dp219
g7
I137636
sbF0.0
tp220
a(g1
(g2
g3
Ntp221
Rp222
(dp223
g7
I138771
sbF0.25
tp224
a(g1
(g2
g3
Ntp225
Rp226
(dp227
g7
I142508
sbF0.0
tp228
a(g1
(g2
g3
Ntp229
Rp230
(dp231
g7
I145144
sbF0.0
tp232
a(g1
(g2
g3
Ntp233
Rp234
(dp235
g7
I146412
sbF0.2
tp236
a(g1
(g2
g3
Ntp237
Rp238
(dp239
g7
I148114
sbF0.39999999999999997
tp240
a(g1
(g2
g3
Ntp241
Rp242
(dp243
g7
I149716
sbF0.0
tp244
a(g1
(g2
g3
Ntp245
Rp246
(dp247
g7
I150816
sbF0.0
tp248
a(g1
(g2
g3
Ntp249
Rp250
(dp251
g7
I153018
sbF0.0
tp252
a(g1
(g2
g3
Ntp253
Rp254
(dp255
g7
I155688
sbF0.1
tp256
a(g1
(g2
g3
Ntp257
Rp258
(dp259
g7
I157090
sbF0.25
tp260
a(g1
(g2
g3
Ntp261
Rp262
(dp263
g7
I158724
sbF0.0
tp264
a(g1
(g2
g3
Ntp265
Rp266
(dp267
g7
I161427
sbF-0.125
tp268
a(g1
(g2
g3
Ntp269
Rp270
(dp271
g7
I162528
sbF0.0
tp272
a(g1
(g2
g3
Ntp273
Rp274
(dp275
g7
I164664
sbF-0.05
tp276
a(g1
(g2
g3
Ntp277
Rp278
(dp279
g7
I166932
sbF0.2
tp280
a(g1
(g2
g3
Ntp281
Rp282
(dp283
g7
I170369
sbF0.0
tp284
a(g1
(g2
g3
Ntp285
Rp286
(dp287
g7
I171437
sbF-0.25
tp288
a(g1
(g2
g3
Ntp289
Rp290
(dp291
g7
I173105
sbF0.0
tp292
a(g1
(g2
g3
Ntp293
Rp294
(dp295
g7
I174140
sbF0.2857142857142857
tp296
a(g1
(g2
g3
Ntp297
Rp298
(dp299
g7
I179979
sbF0.0
tp300
a(g1
(g2
g3
Ntp301
Rp302
(dp303
g7
I182648
sbF0.0
tp304
a(g1
(g2
g3
Ntp305
Rp306
(dp307
g7
I187386
sbF0.0
tp308
a(g1
(g2
g3
Ntp309
Rp310
(dp311
g7
I190223
sbF0.0
tp312
a(g1
(g2
g3
Ntp313
Rp314
(dp315
g7
I192992
sbF0.0
tp316
a(g1
(g2
g3
Ntp317
Rp318
(dp319
g7
I195661
sbF-0.3125
tp320
a(g1
(g2
g3
Ntp321
Rp322
(dp323
g7
I196929
sbF0.0
tp324
a(g1
(g2
g3
Ntp325
Rp326
(dp327
g7
I198731
sbF0.0
tp328
a(g1
(g2
g3
Ntp329
Rp330
(dp331
g7
I201301
sbF0.0
tp332
a(g1
(g2
g3
Ntp333
Rp334
(dp335
g7
I202634
sbF0.0
tp336
a(g1
(g2
g3
Ntp337
Rp338
(dp339
g7
I203903
sbF0.0
tp340
a.