(lp0
(ccopy_reg
_reconstructor
p1
(cpysrt.srttime
SubRipTime
p2
c__builtin__
object
p3
Ntp4
Rp5
(dp6
S'ordinal'
p7
I11780
sbF0.0
tp8
a(g1
(g2
g3
Ntp9
Rp10
(dp11
g7
I14289
sbF0.0
tp12
a(g1
(g2
g3
Ntp13
Rp14
(dp15
g7
I17510
sbF0.0
tp16
a(g1
(g2
g3
Ntp17
Rp18
(dp19
g7
I22040
sbF0.0
tp20
a(g1
(g2
g3
Ntp21
Rp22
(dp23
g7
I24320
sbF0.0
tp24
a(g1
(g2
g3
Ntp25
Rp26
(dp27
g7
I34310
sbF0.0
tp28
a(g1
(g2
g3
Ntp29
Rp30
(dp31
g7
I36740
sbF0.0
tp32
a(g1
(g2
g3
Ntp33
Rp34
(dp35
g7
I40010
sbF0.2857142857142857
tp36
a(g1
(g2
g3
Ntp37
Rp38
(dp39
g7
I42410
sbF0.02440476190476189
tp40
a(g1
(g2
g3
Ntp41
Rp42
(dp43
g7
I45139
sbF-0.10625
tp44
a(g1
(g2
g3
Ntp45
Rp46
(dp47
g7
I47600
sbF-0.15714285714285714
tp48
a(g1
(g2
g3
Ntp49
Rp50
(dp51
g7
I52069
sbF0.2857142857142857
tp52
a(g1
(g2
g3
Ntp53
Rp54
(dp55
g7
I54529
sbF0.2857142857142857
tp56
a(g1
(g2
g3
Ntp57
Rp58
(dp59
g7
I57830
sbF0.7
tp60
a(g1
(g2
g3
Ntp61
Rp62
(dp63
g7
I60290
sbF0.0
tp64
a(g1
(g2
g3
Ntp65
Rp66
(dp67
g7
I70039
sbF0.45
tp68
a(g1
(g2
g3
Ntp69
Rp70
(dp71
g7
I74810
sbF0.39285714285714285
tp72
a(g1
(g2
g3
Ntp73
Rp74
(dp75
g7
I77300
sbF0.49523809523809526
tp76
a(g1
(g2
g3
Ntp77
Rp78
(dp79
g7
I80990
sbF0.7
tp80
a(g1
(g2
g3
Ntp81
Rp82
(dp83
g7
I83289
sbF0.0
tp84
a(g1
(g2
g3
Ntp85
Rp86
(dp87
g7
I86749
sbF-0.25
tp88
a(g1
(g2
g3
Ntp89
Rp90
(dp91
g7
I88850
sbF-0.25
tp92
a(g1
(g2
g3
Ntp93
Rp94
(dp95
g7
I93170
sbF0.0
tp96
a(g1
(g2
g3
Ntp97
Rp98
(dp99
g7
I97640
sbF0.5
tp100
a(g1
(g2
g3
Ntp101
Rp102
(dp103
g7
I100280
sbF0.2619047619047619
tp104
a(g1
(g2
g3
Ntp105
Rp106
(dp107
g7
I103280
sbF0.19047619047619047
tp108
a(g1
(g2
g3
Ntp109
Rp110
(dp111
g7
I105950
sbF0.2857142857142857
tp112
a(g1
(g2
g3
Ntp113
Rp114
(dp115
g7
I107960
sbF0.0
tp116
a(g1
(g2
g3
Ntp117
Rp118
(dp119
g7
I111109
sbF0.0
tp120
a(g1
(g2
g3
Ntp121
Rp122
(dp123
g7
I113359
sbF0.0
tp124
a(g1
(g2
g3
Ntp125
Rp126
(dp127
g7
I115850
sbF0.08333333333333334
tp128
a(g1
(g2
g3
Ntp129
Rp130
(dp131
g7
I121030
sbF0.12222222222222223
tp132
a(g1
(g2
g3
Ntp133
Rp134
(dp135
g7
I128120
sbF0.4666666666666667
tp136
a(g1
(g2
g3
Ntp137
Rp138
(dp139
g7
I135650
sbF0.5111111111111111
tp140
a(g1
(g2
g3
Ntp141
Rp142
(dp143
g7
I141050
sbF0.5
tp144
a(g1
(g2
g3
Ntp145
Rp146
(dp147
g7
I143690
sbF0.5
tp148
a(g1
(g2
g3
Ntp149
Rp150
(dp151
g7
I147890
sbF0.5
tp152
a(g1
(g2
g3
Ntp153
Rp154
(dp155
g7
I151070
sbF0.5
tp156
a(g1
(g2
g3
Ntp157
Rp158
(dp159
g7
I154790
sbF0.2857142857142857
tp160
a(g1
(g2
g3
Ntp161
Rp162
(dp163
g7
I157160
sbF0.2857142857142857
tp164
a(g1
(g2
g3
Ntp165
Rp166
(dp167
g7
I159770
sbF0.0
tp168
a(g1
(g2
g3
Ntp169
Rp170
(dp171
g7
I163100
sbF0.0
tp172
a(g1
(g2
g3
Ntp173
Rp174
(dp175
g7
I165710
sbF0.0
tp176
a(g1
(g2
g3
Ntp177
Rp178
(dp179
g7
I168350
sbF0.0
tp180
a(g1
(g2
g3
Ntp181
Rp182
(dp183
g7
I171530
sbF0.3
tp184
a(g1
(g2
g3
Ntp185
Rp186
(dp187
g7
I173810
sbF0.3666666666666667
tp188
a(g1
(g2
g3
Ntp189
Rp190
(dp191
g7
I175910
sbF0.5666666666666667
tp192
a(g1
(g2
g3
Ntp193
Rp194
(dp195
g7
I191250
sbF0.7
tp196
a(g1
(g2
g3
Ntp197
Rp198
(dp199
g7
I205930
sbF-0.25
tp200
a(g1
(g2
g3
Ntp201
Rp202
(dp203
g7
I210100
sbF0.0
tp204
a(g1
(g2
g3
Ntp205
Rp206
(dp207
g7
I216490
sbF0.0
tp208
a(g1
(g2
g3
Ntp209
Rp210
(dp211
g7
I218800
sbF0.5
tp212
a(g1
(g2
g3
Ntp213
Rp214
(dp215
g7
I222130
sbF0.5
tp216
a(g1
(g2
g3
Ntp217
Rp218
(dp219
g7
I225460
sbF0.0
tp220
a(g1
(g2
g3
Ntp221
Rp222
(dp223
g7
I230620
sbF0.0
tp224
a(g1
(g2
g3
Ntp225
Rp226
(dp227
g7
I233380
sbF0.0
tp228
a(g1
(g2
g3
Ntp229
Rp230
(dp231
g7
I238630
sbF0.0
tp232
a(g1
(g2
g3
Ntp233
Rp234
(dp235
g7
I240760
sbF0.5
tp236
a(g1
(g2
g3
Ntp237
Rp238
(dp239
g7
I243690
sbF0.5
tp240
a(g1
(g2
g3
Ntp241
Rp242
(dp243
g7
I248050
sbF0.5
tp244
a(g1
(g2
g3
Ntp245
Rp246
(dp247
g7
I255210
sbF0.5
tp248
a(g1
(g2
g3
Ntp249
Rp250
(dp251
g7
I258490
sbF0.0
tp252
a(g1
(g2
g3
Ntp253
Rp254
(dp255
g7
I260860
sbF0.5
tp256
a(g1
(g2
g3
Ntp257
Rp258
(dp259
g7
I263410
sbF0.25
tp260
a(g1
(g2
g3
Ntp261
Rp262
(dp263
g7
I269320
sbF0.0
tp264
a(g1
(g2
g3
Ntp265
Rp266
(dp267
g7
I276240
sbF0.30000000000000004
tp268
a(g1
(g2
g3
Ntp269
Rp270
(dp271
g7
I280630
sbF0.30000000000000004
tp272
a(g1
(g2
g3
Ntp273
Rp274
(dp275
g7
I282700
sbF0.0
tp276
a(g1
(g2
g3
Ntp277
Rp278
(dp279
g7
I286900
sbF0.0
tp280
a(g1
(g2
g3
Ntp281
Rp282
(dp283
g7
I289150
sbF0.0
tp284
a(g1
(g2
g3
Ntp285
Rp286
(dp287
g7
I292690
sbF0.0
tp288
a(g1
(g2
g3
Ntp289
Rp290
(dp291
g7
I296050
sbF0.0
tp292
a(g1
(g2
g3
Ntp293
Rp294
(dp295
g7
I299950
sbF0.0
tp296
a(g1
(g2
g3
Ntp297
Rp298
(dp299
g7
I304409
sbF0.3
tp300
a(g1
(g2
g3
Ntp301
Rp302
(dp303
g7
I310090
sbF0.25
tp304
a(g1
(g2
g3
Ntp305
Rp306
(dp307
g7
I313630
sbF0.15000000000000002
tp308
a(g1
(g2
g3
Ntp309
Rp310
(dp311
g7
I317530
sbF0.1
tp312
a(g1
(g2
g3
Ntp313
Rp314
(dp315
g7
I322330
sbF0.0
tp316
a(g1
(g2
g3
Ntp317
Rp318
(dp319
g7
I328330
sbF0.0
tp320
a(g1
(g2
g3
Ntp321
Rp322
(dp323
g7
I333470
sbF0.2857142857142857
tp324
a(g1
(g2
g3
Ntp325
Rp326
(dp327
g7
I339100
sbF0.2857142857142857
tp328
a(g1
(g2
g3
Ntp329
Rp330
(dp331
g7
I342890
sbF-0.35714285714285715
tp332
a(g1
(g2
g3
Ntp333
Rp334
(dp335
g7
I348230
sbF0.25
tp336
a(g1
(g2
g3
Ntp337
Rp338
(dp339
g7
I350600
sbF0.25
tp340
a(g1
(g2
g3
Ntp341
Rp342
(dp343
g7
I353630
sbF0.0
tp344
a(g1
(g2
g3
Ntp345
Rp346
(dp347
g7
I356330
sbF0.0
tp348
a(g1
(g2
g3
Ntp349
Rp350
(dp351
g7
I361160
sbF0.5
tp352
a(g1
(g2
g3
Ntp353
Rp354
(dp355
g7
I367730
sbF0.5
tp356
a(g1
(g2
g3
Ntp357
Rp358
(dp359
g7
I372620
sbF0.0
tp360
a(g1
(g2
g3
Ntp361
Rp362
(dp363
g7
I375080
sbF0.3076923076923077
tp364
a(g1
(g2
g3
Ntp365
Rp366
(dp367
g7
I378830
sbF0.3076923076923077
tp368
a(g1
(g2
g3
Ntp369
Rp370
(dp371
g7
I382540
sbF0.0
tp372
a(g1
(g2
g3
Ntp373
Rp374
(dp375
g7
I405250
sbF0.0
tp376
a(g1
(g2
g3
Ntp377
Rp378
(dp379
g7
I407620
sbF0.0
tp380
a(g1
(g2
g3
Ntp381
Rp382
(dp383
g7
I411190
sbF0.0
tp384
a(g1
(g2
g3
Ntp385
Rp386
(dp387
g7
I413440
sbF0.0
tp388
a(g1
(g2
g3
Ntp389
Rp390
(dp391
g7
I421090
sbF0.0
tp392
a(g1
(g2
g3
Ntp393
Rp394
(dp395
g7
I423880
sbF0.0
tp396
a(g1
(g2
g3
Ntp397
Rp398
(dp399
g7
I427120
sbF0.0
tp400
a(g1
(g2
g3
Ntp401
Rp402
(dp403
g7
I431380
sbF0.0
tp404
a(g1
(g2
g3
Ntp405
Rp406
(dp407
g7
I433840
sbF0.0
tp408
a(g1
(g2
g3
Ntp409
Rp410
(dp411
g7
I436680
sbF0.0
tp412
a(g1
(g2
g3
Ntp413
Rp414
(dp415
g7
I439720
sbF0.8
tp416
a(g1
(g2
g3
Ntp417
Rp418
(dp419
g7
I443400
sbF-0.17857142857142858
tp420
a(g1
(g2
g3
Ntp421
Rp422
(dp423
g7
I449420
sbF0.2607142857142857
tp424
a(g1
(g2
g3
Ntp425
Rp426
(dp427
g7
I457910
sbF0.7
tp428
a.