(lp0
(ccopy_reg
_reconstructor
p1
(cpysrt.srttime
SubRipTime
p2
c__builtin__
object
p3
Ntp4
Rp5
(dp6
S'ordinal'
p7
I7160
sbF0.0
tp8
a(g1
(g2
g3
Ntp9
Rp10
(dp11
g7
I9500
sbF0.0
tp12
a(g1
(g2
g3
Ntp13
Rp14
(dp15
g7
I13999
sbF0.1
tp16
a(g1
(g2
g3
Ntp17
Rp18
(dp19
g7
I18890
sbF-0.033333333333333326
tp20
a(g1
(g2
g3
Ntp21
Rp22
(dp23
g7
I23599
sbF0.0
tp24
a(g1
(g2
g3
Ntp25
Rp26
(dp27
g7
I25730
sbF0.3
tp28
a(g1
(g2
g3
Ntp29
Rp30
(dp31
g7
I28279
sbF0.0
tp32
a(g1
(g2
g3
Ntp33
Rp34
(dp35
g7
I34400
sbF0.3333333333333333
tp36
a(g1
(g2
g3
Ntp37
Rp38
(dp39
g7
I41060
sbF0.0
tp40
a(g1
(g2
g3
Ntp41
Rp42
(dp43
g7
I43670
sbF0.0
tp44
a(g1
(g2
g3
Ntp45
Rp46
(dp47
g7
I48430
sbF0.1
tp48
a(g1
(g2
g3
Ntp49
Rp50
(dp51
g7
I51319
sbF0.1
tp52
a(g1
(g2
g3
Ntp53
Rp54
(dp55
g7
I53389
sbF0.0
tp56
a(g1
(g2
g3
Ntp57
Rp58
(dp59
g7
I58930
sbF0.7
tp60
a(g1
(g2
g3
Ntp61
Rp62
(dp63
g7
I64640
sbF0.24999999999999997
tp64
a(g1
(g2
g3
Ntp65
Rp66
(dp67
g7
I68870
sbF0.0
tp68
a(g1
(g2
g3
Ntp69
Rp70
(dp71
g7
I77030
sbF-0.026767676767676774
tp72
a(g1
(g2
g3
Ntp73
Rp74
(dp75
g7
I80690
sbF0.0
tp76
a(g1
(g2
g3
Ntp77
Rp78
(dp79
g7
I82820
sbF0.0
tp80
a(g1
(g2
g3
Ntp81
Rp82
(dp83
g7
I88700
sbF-0.28125
tp84
a(g1
(g2
g3
Ntp85
Rp86
(dp87
g7
I92240
sbF0.0
tp88
a(g1
(g2
g3
Ntp89
Rp90
(dp91
g7
I96040
sbF0.0
tp92
a(g1
(g2
g3
Ntp93
Rp94
(dp95
g7
I106700
sbF0.0
tp96
a(g1
(g2
g3
Ntp97
Rp98
(dp99
g7
I111520
sbF0.0
tp100
a(g1
(g2
g3
Ntp101
Rp102
(dp103
g7
I116620
sbF0.2857142857142857
tp104
a(g1
(g2
g3
Ntp105
Rp106
(dp107
g7
I121160
sbF0.0
tp108
a.