(lp0
(ccopy_reg
_reconstructor
p1
(cpysrt.srttime
SubRipTime
p2
c__builtin__
object
p3
Ntp4
Rp5
(dp6
S'ordinal'
p7
I14749
sbF0.16666666666666666
tp8
a(g1
(g2
g3
Ntp9
Rp10
(dp11
g7
I17689
sbF0.0
tp12
a(g1
(g2
g3
Ntp13
Rp14
(dp15
g7
I22010
sbF-0.4
tp16
a(g1
(g2
g3
Ntp17
Rp18
(dp19
g7
I28339
sbF0.1
tp20
a(g1
(g2
g3
Ntp21
Rp22
(dp23
g7
I33520
sbF0.1
tp24
a(g1
(g2
g3
Ntp25
Rp26
(dp27
g7
I36530
sbF-0.007142857142857145
tp28
a(g1
(g2
g3
Ntp29
Rp30
(dp31
g7
I42799
sbF0.5
tp32
a(g1
(g2
g3
Ntp33
Rp34
(dp35
g7
I47660
sbF0.5
tp36
a(g1
(g2
g3
Ntp37
Rp38
(dp39
g7
I53930
sbF-1.0
tp40
a(g1
(g2
g3
Ntp41
Rp42
(dp43
g7
I57529
sbF0.0
tp44
a(g1
(g2
g3
Ntp45
Rp46
(dp47
g7
I60709
sbF0.21428571428571427
tp48
a(g1
(g2
g3
Ntp49
Rp50
(dp51
g7
I64539
sbF0.02857142857142858
tp52
a(g1
(g2
g3
Ntp53
Rp54
(dp55
g7
I67850
sbF0.028571428571428574
tp56
a(g1
(g2
g3
Ntp57
Rp58
(dp59
g7
I71719
sbF0.21428571428571427
tp60
a(g1
(g2
g3
Ntp61
Rp62
(dp63
g7
I75499
sbF0.0
tp64
a(g1
(g2
g3
Ntp65
Rp66
(dp67
g7
I79820
sbF0.1
tp68
a(g1
(g2
g3
Ntp69
Rp70
(dp71
g7
I81920
sbF0.1
tp72
a(g1
(g2
g3
Ntp73
Rp74
(dp75
g7
I84050
sbF-0.225
tp76
a(g1
(g2
g3
Ntp77
Rp78
(dp79
g7
I86749
sbF-0.15
tp80
a(g1
(g2
g3
Ntp81
Rp82
(dp83
g7
I90350
sbF0.0
tp84
a(g1
(g2
g3
Ntp85
Rp86
(dp87
g7
I93109
sbF0.0
tp88
a(g1
(g2
g3
Ntp89
Rp90
(dp91
g7
I98240
sbF-0.55
tp92
a(g1
(g2
g3
Ntp93
Rp94
(dp95
g7
I100429
sbF0.2619047619047619
tp96
a(g1
(g2
g3
Ntp97
Rp98
(dp99
g7
I102590
sbF0.4952380952380952
tp100
a(g1
(g2
g3
Ntp101
Rp102
(dp103
g7
I108620
sbF0.3
tp104
a(g1
(g2
g3
Ntp105
Rp106
(dp107
g7
I111109
sbF0.3333333333333333
tp108
a(g1
(g2
g3
Ntp109
Rp110
(dp111
g7
I113210
sbF0.016666666666666666
tp112
a(g1
(g2
g3
Ntp113
Rp114
(dp115
g7
I115819
sbF0.016666666666666666
tp116
a(g1
(g2
g3
Ntp117
Rp118
(dp119
g7
I124350
sbF-0.20833333333333334
tp120
a(g1
(g2
g3
Ntp121
Rp122
(dp123
g7
I131339
sbF0.4
tp124
a(g1
(g2
g3
Ntp125
Rp126
(dp127
g7
I133559
sbF0.6000000000000001
tp128
a(g1
(g2
g3
Ntp129
Rp130
(dp131
g7
I136050
sbF0.4681818181818182
tp132
a(g1
(g2
g3
Ntp133
Rp134
(dp135
g7
I139170
sbF0.13636363636363635
tp136
a(g1
(g2
g3
Ntp137
Rp138
(dp139
g7
I141360
sbF-0.1
tp140
a(g1
(g2
g3
Ntp141
Rp142
(dp143
g7
I145470
sbF-0.05
tp144
a(g1
(g2
g3
Ntp145
Rp146
(dp147
g7
I151199
sbF0.0
tp148
a(g1
(g2
g3
Ntp149
Rp150
(dp151
g7
I153270
sbF0.0
tp152
a(g1
(g2
g3
Ntp153
Rp154
(dp155
g7
I157440
sbF-0.1875
tp156
a(g1
(g2
g3
Ntp157
Rp158
(dp159
g7
I162180
sbF0.0
tp160
a(g1
(g2
g3
Ntp161
Rp162
(dp163
g7
I164910
sbF0.0
tp164
a(g1
(g2
g3
Ntp165
Rp166
(dp167
g7
I167009
sbF0.0
tp168
a(g1
(g2
g3
Ntp169
Rp170
(dp171
g7
I169500
sbF0.0
tp172
a(g1
(g2
g3
Ntp173
Rp174
(dp175
g7
I173070
sbF0.0
tp176
a(g1
(g2
g3
Ntp177
Rp178
(dp179
g7
I175949
sbF0.5
tp180
a(g1
(g2
g3
Ntp181
Rp182
(dp183
g7
I178289
sbF0.55
tp184
a(g1
(g2
g3
Ntp185
Rp186
(dp187
g7
I181860
sbF0.6
tp188
a(g1
(g2
g3
Ntp189
Rp190
(dp191
g7
I190460
sbF0.25
tp192
a(g1
(g2
g3
Ntp193
Rp194
(dp195
g7
I193860
sbF0.25
tp196
a(g1
(g2
g3
Ntp197
Rp198
(dp199
g7
I196590
sbF0.0
tp200
a(g1
(g2
g3
Ntp201
Rp202
(dp203
g7
I203789
sbF0.6
tp204
a(g1
(g2
g3
Ntp205
Rp206
(dp207
g7
I213000
sbF0.0
tp208
a(g1
(g2
g3
Ntp209
Rp210
(dp211
g7
I217050
sbF0.0
tp212
a(g1
(g2
g3
Ntp213
Rp214
(dp215
g7
I222030
sbF-0.053125
tp216
a(g1
(g2
g3
Ntp217
Rp218
(dp219
g7
I224339
sbF-0.34500000000000003
tp220
a(g1
(g2
g3
Ntp221
Rp222
(dp223
g7
I230130
sbF-0.1
tp224
a(g1
(g2
g3
Ntp225
Rp226
(dp227
g7
I236130
sbF0.4666666666666666
tp228
a(g1
(g2
g3
Ntp229
Rp230
(dp231
g7
I238199
sbF0.5
tp232
a(g1
(g2
g3
Ntp233
Rp234
(dp235
g7
I240360
sbF0.0
tp236
a(g1
(g2
g3
Ntp237
Rp238
(dp239
g7
I242550
sbF0.0
tp240
a(g1
(g2
g3
Ntp241
Rp242
(dp243
g7
I245580
sbF0.0
tp244
a(g1
(g2
g3
Ntp245
Rp246
(dp247
g7
I252270
sbF-0.05
tp248
a(g1
(g2
g3
Ntp249
Rp250
(dp251
g7
I257310
sbF0.042857142857142844
tp252
a(g1
(g2
g3
Ntp253
Rp254
(dp255
g7
I259830
sbF0.042857142857142844
tp256
a(g1
(g2
g3
Ntp257
Rp258
(dp259
g7
I264330
sbF-0.3125
tp260
a(g1
(g2
g3
Ntp261
Rp262
(dp263
g7
I266460
sbF0.0
tp264
a(g1
(g2
g3
Ntp265
Rp266
(dp267
g7
I270330
sbF0.5
tp268
a(g1
(g2
g3
Ntp269
Rp270
(dp271
g7
I276420
sbF0.0
tp272
a(g1
(g2
g3
Ntp273
Rp274
(dp275
g7
I281100
sbF0.0
tp276
a(g1
(g2
g3
Ntp277
Rp278
(dp279
g7
I283350
sbF0.0
tp280
a(g1
(g2
g3
Ntp281
Rp282
(dp283
g7
I288570
sbF0.0
tp284
a.