(lp0
(ccopy_reg
_reconstructor
p1
(cpysrt.srttime
SubRipTime
p2
c__builtin__
object
p3
Ntp4
Rp5
(dp6
S'ordinal'
p7
I4490
sbF0.0
tp8
a(g1
(g2
g3
Ntp9
Rp10
(dp11
g7
I6590
sbF0.0
tp12
a(g1
(g2
g3
Ntp13
Rp14
(dp15
g7
I8750
sbF0.0
tp16
a(g1
(g2
g3
Ntp17
Rp18
(dp19
g7
I10940
sbF0.0
tp20
a(g1
(g2
g3
Ntp21
Rp22
(dp23
g7
I16550
sbF0.4666666666666666
tp24
a(g1
(g2
g3
Ntp25
Rp26
(dp27
g7
I19120
sbF0.4
tp28
a(g1
(g2
g3
Ntp29
Rp30
(dp31
g7
I23509
sbF0.0
tp32
a(g1
(g2
g3
Ntp33
Rp34
(dp35
g7
I25700
sbF0.0
tp36
a(g1
(g2
g3
Ntp37
Rp38
(dp39
g7
I27950
sbF0.0
tp40
a(g1
(g2
g3
Ntp41
Rp42
(dp43
g7
I32600
sbF0.5
tp44
a(g1
(g2
g3
Ntp45
Rp46
(dp47
g7
I36110
sbF0.8
tp48
a(g1
(g2
g3
Ntp49
Rp50
(dp51
g7
I40790
sbF-0.0625
tp52
a(g1
(g2
g3
Ntp53
Rp54
(dp55
g7
I42979
sbF-0.08333333333333333
tp56
a(g1
(g2
g3
Ntp57
Rp58
(dp59
g7
I45319
sbF-0.125
tp60
a(g1
(g2
g3
Ntp61
Rp62
(dp63
g7
I53420
sbF0.0
tp64
a(g1
(g2
g3
Ntp65
Rp66
(dp67
g7
I57260
sbF0.2
tp68
a(g1
(g2
g3
Ntp69
Rp70
(dp71
g7
I65329
sbF0.0
tp72
a(g1
(g2
g3
Ntp73
Rp74
(dp75
g7
I68120
sbF0.0
tp76
a(g1
(g2
g3
Ntp77
Rp78
(dp79
g7
I73250
sbF0.0
tp80
a(g1
(g2
g3
Ntp81
Rp82
(dp83
g7
I75380
sbF0.0
tp84
a(g1
(g2
g3
Ntp85
Rp86
(dp87
g7
I77929
sbF0.25
tp88
a(g1
(g2
g3
Ntp89
Rp90
(dp91
g7
I81350
sbF0.25
tp92
a(g1
(g2
g3
Ntp93
Rp94
(dp95
g7
I87560
sbF0.25
tp96
a(g1
(g2
g3
Ntp97
Rp98
(dp99
g7
I90160
sbF0.5
tp100
a(g1
(g2
g3
Ntp101
Rp102
(dp103
g7
I92450
sbF0.0
tp104
a(g1
(g2
g3
Ntp105
Rp106
(dp107
g7
I98120
sbF0.0
tp108
a(g1
(g2
g3
Ntp109
Rp110
(dp111
g7
I101630
sbF0.0
tp112
a(g1
(g2
g3
Ntp113
Rp114
(dp115
g7
I105920
sbF0.0
tp116
a(g1
(g2
g3
Ntp117
Rp118
(dp119
g7
I108350
sbF0.14285714285714285
tp120
a(g1
(g2
g3
Ntp121
Rp122
(dp123
g7
I110719
sbF0.14285714285714285
tp124
a(g1
(g2
g3
Ntp125
Rp126
(dp127
g7
I113300
sbF0.0
tp128
a(g1
(g2
g3
Ntp129
Rp130
(dp131
g7
I115490
sbF0.2857142857142857
tp132
a(g1
(g2
g3
Ntp133
Rp134
(dp135
g7
I117830
sbF0.2857142857142857
tp136
a(g1
(g2
g3
Ntp137
Rp138
(dp139
g7
I131029
sbF0.2
tp140
a(g1
(g2
g3
Ntp141
Rp142
(dp143
g7
I133350
sbF0.2
tp144
a(g1
(g2
g3
Ntp145
Rp146
(dp147
g7
I135480
sbF0.0
tp148
a(g1
(g2
g3
Ntp149
Rp150
(dp151
g7
I142920
sbF0.0
tp152
a.